; ModuleID = '24/388.c'
source_filename = "24/388.c"
target datalayout = "e-m:e-p270:32:32-p271:32:32-p272:64:64-i64:64-f80:128-n8:16:32:64-S128"
target triple = "x86_64-pc-linux-gnu"

@.str = private unnamed_addr constant [3 x i8] c"%c\00", align 1
@.str.1 = private unnamed_addr constant [2 x i8] c"\0A\00", align 1

; Function Attrs: noinline nounwind uwtable
define dso_local i32 @main() #0 {
  %1 = alloca i32, align 4
  %2 = alloca [100 x i8], align 16
  %3 = alloca i8*, align 8
  %4 = alloca i8*, align 8
  %5 = alloca i8*, align 8
  %6 = alloca i32, align 4
  %7 = alloca i32, align 4
  %8 = alloca i32, align 4
  %9 = alloca i32, align 4
  store i32 0, i32* %1, align 4
  store i8* null, i8** %3, align 8
  store i8* null, i8** %4, align 8
  store i8* null, i8** %5, align 8
  store i32 0, i32* %6, align 4
  store i32 0, i32* %7, align 4
  store i32 0, i32* %8, align 4
  store i32 100, i32* %9, align 4
  %10 = getelementptr inbounds [100 x i8], [100 x i8]* %2, i64 0, i64 0
  %11 = call i32 (i8*, ...) bitcast (i32 (...)* @gets to i32 (i8*, ...)*)(i8* %10)
  %12 = getelementptr inbounds [100 x i8], [100 x i8]* %2, i64 0, i64 0
  store i8* %12, i8** %3, align 8
  br label %13

13:                                               ; preds = %61, %0
  %14 = load i8*, i8** %3, align 8
  %15 = getelementptr inbounds [100 x i8], [100 x i8]* %2, i64 0, i64 0
  %16 = getelementptr inbounds [100 x i8], [100 x i8]* %2, i64 0, i64 0
  %17 = call i64 @strlen(i8* %16) #3
  %18 = getelementptr inbounds i8, i8* %15, i64 %17
  %19 = icmp ule i8* %14, %18
  br i1 %19, label %20, label %64

20:                                               ; preds = %13
  %21 = load i8*, i8** %3, align 8
  %22 = load i8, i8* %21, align 1
  %23 = sext i8 %22 to i32
  %24 = icmp eq i32 %23, 32
  br i1 %24, label %30, label %25

25:                                               ; preds = %20
  %26 = load i8*, i8** %3, align 8
  %27 = load i8, i8* %26, align 1
  %28 = sext i8 %27 to i32
  %29 = icmp eq i32 %28, 0
  br i1 %29, label %30, label %57

30:                                               ; preds = %25, %20
  %31 = load i32, i32* %6, align 4
  %32 = icmp eq i32 %31, 0
  br i1 %32, label %33, label %34

33:                                               ; preds = %30
  br label %61

34:                                               ; preds = %30
  %35 = load i32, i32* %7, align 4
  %36 = load i32, i32* %8, align 4
  %37 = icmp sgt i32 %35, %36
  br i1 %37, label %38, label %45

38:                                               ; preds = %34
  %39 = load i8*, i8** %3, align 8
  %40 = load i32, i32* %7, align 4
  %41 = sext i32 %40 to i64
  %42 = sub i64 0, %41
  %43 = getelementptr inbounds i8, i8* %39, i64 %42
  store i8* %43, i8** %5, align 8
  %44 = load i32, i32* %7, align 4
  store i32 %44, i32* %8, align 4
  br label %45

45:                                               ; preds = %38, %34
  %46 = load i32, i32* %7, align 4
  %47 = load i32, i32* %9, align 4
  %48 = icmp slt i32 %46, %47
  br i1 %48, label %49, label %56

49:                                               ; preds = %45
  %50 = load i8*, i8** %3, align 8
  %51 = load i32, i32* %7, align 4
  %52 = sext i32 %51 to i64
  %53 = sub i64 0, %52
  %54 = getelementptr inbounds i8, i8* %50, i64 %53
  store i8* %54, i8** %4, align 8
  %55 = load i32, i32* %7, align 4
  store i32 %55, i32* %9, align 4
  br label %56

56:                                               ; preds = %49, %45
  store i32 0, i32* %7, align 4
  store i32 0, i32* %6, align 4
  br label %60

57:                                               ; preds = %25
  %58 = load i32, i32* %7, align 4
  %59 = add nsw i32 %58, 1
  store i32 %59, i32* %7, align 4
  store i32 1, i32* %6, align 4
  br label %60

60:                                               ; preds = %57, %56
  br label %61

61:                                               ; preds = %60, %33
  %62 = load i8*, i8** %3, align 8
  %63 = getelementptr inbounds i8, i8* %62, i32 1
  store i8* %63, i8** %3, align 8
  br label %13

64:                                               ; preds = %13
  %65 = load i8*, i8** %5, align 8
  store i8* %65, i8** %3, align 8
  br label %66

66:                                               ; preds = %78, %64
  %67 = load i8*, i8** %3, align 8
  %68 = load i8*, i8** %5, align 8
  %69 = load i32, i32* %8, align 4
  %70 = sext i32 %69 to i64
  %71 = getelementptr inbounds i8, i8* %68, i64 %70
  %72 = icmp ult i8* %67, %71
  br i1 %72, label %73, label %81

73:                                               ; preds = %66
  %74 = load i8*, i8** %3, align 8
  %75 = load i8, i8* %74, align 1
  %76 = sext i8 %75 to i32
  %77 = call i32 (i8*, ...) @printf(i8* getelementptr inbounds ([3 x i8], [3 x i8]* @.str, i64 0, i64 0), i32 %76)
  br label %78

78:                                               ; preds = %73
  %79 = load i8*, i8** %3, align 8
  %80 = getelementptr inbounds i8, i8* %79, i32 1
  store i8* %80, i8** %3, align 8
  br label %66

81:                                               ; preds = %66
  %82 = call i32 (i8*, ...) @printf(i8* getelementptr inbounds ([2 x i8], [2 x i8]* @.str.1, i64 0, i64 0))
  %83 = load i8*, i8** %4, align 8
  store i8* %83, i8** %3, align 8
  br label %84

84:                                               ; preds = %96, %81
  %85 = load i8*, i8** %3, align 8
  %86 = load i8*, i8** %4, align 8
  %87 = load i32, i32* %9, align 4
  %88 = sext i32 %87 to i64
  %89 = getelementptr inbounds i8, i8* %86, i64 %88
  %90 = icmp ult i8* %85, %89
  br i1 %90, label %91, label %99

91:                                               ; preds = %84
  %92 = load i8*, i8** %3, align 8
  %93 = load i8, i8* %92, align 1
  %94 = sext i8 %93 to i32
  %95 = call i32 (i8*, ...) @printf(i8* getelementptr inbounds ([3 x i8], [3 x i8]* @.str, i64 0, i64 0), i32 %94)
  br label %96

96:                                               ; preds = %91
  %97 = load i8*, i8** %3, align 8
  %98 = getelementptr inbounds i8, i8* %97, i32 1
  store i8* %98, i8** %3, align 8
  br label %84

99:                                               ; preds = %84
  %100 = call i32 (i8*, ...) @printf(i8* getelementptr inbounds ([2 x i8], [2 x i8]* @.str.1, i64 0, i64 0))
  %101 = call i32 @getchar()
  %102 = call i32 @getchar()
  ret i32 0
}

declare dso_local i32 @gets(...) #1

; Function Attrs: nounwind readonly
declare dso_local i64 @strlen(i8*) #2

declare dso_local i32 @printf(i8*, ...) #1

declare dso_local i32 @getchar() #1


!llvm.module.flags = !{!0}
!llvm.ident = !{!1}

!0 = !{i32 1, !"wchar_size", i32 4}
!1 = !{!"clang version 10.0.0-4ubuntu1 "}
